; Function Attrs: mustprogress nounwind uwtable
define dso_local noundef zeroext i1 @_ZN5clang12isRefCountedEPKNS_13CXXRecordDeclE(ptr noundef nonnull %0) local_unnamed_addr #0 {
  %2 = alloca %"class.std::__cxx11::basic_string", align 8
  %3 = tail call noundef ptr @_ZNK5clang13CXXRecordDecl31getTemplateInstantiationPatternEv(ptr noundef nonnull align 8 dereferenceable(144) %0) #10
  %.not = icmp eq ptr %3, null
  br i1 %.not, label %17, label %4

4:                                                ; preds = %1
  call void @_ZN5clang11safeGetNameINS_13CXXRecordDeclEEENSt7__cxx1112basic_stringIcSt11char_traitsIcESaIcEEEPKT_(ptr dead_on_unwind nonnull writable sret(%"class.std::__cxx11::basic_string") align 8 %2, ptr noundef nonnull %3)
  %5 = call noundef i32 @_ZNKSt7__cxx1112basic_stringIcSt11char_traitsIcESaIcEE7compareEPKc(ptr noundef nonnull align 8 dereferenceable(32) %2, ptr noundef nonnull @.str.2) #10
  %6 = icmp eq i32 %5, 0
  br i1 %6, label %_ZN5clang9isRefTypeERKNSt7__cxx1112basic_stringIcSt11char_traitsIcESaIcEEE.exit, label %7

7:                                                ; preds = %4
  %8 = call noundef i32 @_ZNKSt7__cxx1112basic_stringIcSt11char_traitsIcESaIcEE7compareEPKc(ptr noundef nonnull align 8 dereferenceable(32) %2, ptr noundef nonnull @.str.3) #10
  %9 = icmp eq i32 %8, 0
  br i1 %9, label %_ZN5clang9isRefTypeERKNSt7__cxx1112basic_stringIcSt11char_traitsIcESaIcEEE.exit, label %10

10:                                               ; preds = %7
  %11 = call noundef i32 @_ZNKSt7__cxx1112basic_stringIcSt11char_traitsIcESaIcEE7compareEPKc(ptr noundef nonnull align 8 dereferenceable(32) %2, ptr noundef nonnull @.str.4) #10
  %12 = icmp eq i32 %11, 0
  br i1 %12, label %_ZN5clang9isRefTypeERKNSt7__cxx1112basic_stringIcSt11char_traitsIcESaIcEEE.exit, label %13

13:                                               ; preds = %10
  %14 = call noundef i32 @_ZNKSt7__cxx1112basic_stringIcSt11char_traitsIcESaIcEE7compareEPKc(ptr noundef nonnull align 8 dereferenceable(32) %2, ptr noundef nonnull @.str.5) #10
  %15 = icmp eq i32 %14, 0
  br label %_ZN5clang9isRefTypeERKNSt7__cxx1112basic_stringIcSt11char_traitsIcESaIcEEE.exit

_ZN5clang9isRefTypeERKNSt7__cxx1112basic_stringIcSt11char_traitsIcESaIcEEE.exit: ; preds = %4, %7, %10, %13
  %16 = phi i1 [ true, %10 ], [ true, %7 ], [ true, %4 ], [ %15, %13 ]
  call void @_ZNSt7__cxx1112basic_stringIcSt11char_traitsIcESaIcEED1Ev(ptr noundef nonnull align 8 dereferenceable(32) %2) #10
  br label %17

17:                                               ; preds = %1, %_ZN5clang9isRefTypeERKNSt7__cxx1112basic_stringIcSt11char_traitsIcESaIcEEE.exit
  %.0 = phi i1 [ %16, %_ZN5clang9isRefTypeERKNSt7__cxx1112basic_stringIcSt11char_traitsIcESaIcEEE.exit ], [ false, %1 ]
  ret i1 %.0
}